target datalayout = "e-m:e-p270:32:32-p271:32:32-p272:64:64-i64:64-i128:128-f80:128-n8:16:32:64-S128"
target triple = "x86_64-pc-linux-gnu"

%struct.expert_field = type { i32, i32 }

@.str.74 = private unnamed_addr constant [9 x i8] c"Reserved\00", align 1
@hf_ansi_801_reject_request_type = internal global i32 0, align 4
@hf_ansi_801_reject_reason = internal global i32 0, align 4
@hf_ansi_801_reserved8_01 = internal global i32 0, align 4
@ei_ansi_801_extraneous_data = internal global %struct.expert_field zeroinitializer, align 4
@ei_ansi_801_short_data = internal global %struct.expert_field zeroinitializer, align 4
@.str.258 = private unnamed_addr constant [8 x i8] c"(%u) %s\00", align 1
@.str.275 = private unnamed_addr constant [3 x i8] c"%s\00", align 1
@.str.302 = private unnamed_addr constant [47 x i8] c"Capability not supported by the mobile station\00", align 1
@.str.303 = private unnamed_addr constant [97 x i8] c"Capability normally supported by the mobile station but temporarily not available or not enabled\00", align 1

; Function Attrs: null_pointer_is_valid sspstrong uwtable
define internal void @rev_reject(ptr noundef %0, ptr noundef %1, ptr noundef %2, i32 noundef %3, i32 noundef %4) #0 {
  %6 = alloca ptr, align 8
  %7 = alloca ptr, align 8
  %8 = alloca ptr, align 8
  %9 = alloca i32, align 4
  %10 = alloca i32, align 4
  %11 = alloca i8, align 1
  %12 = alloca i32, align 4
  %13 = alloca ptr, align 8
  %14 = alloca i32, align 4
  store ptr %0, ptr %6, align 8
  store ptr %1, ptr %7, align 8
  store ptr %2, ptr %8, align 8
  store i32 %3, ptr %9, align 4
  store i32 %4, ptr %10, align 4
  call void @llvm.lifetime.start.p0(i64 1, ptr %11) #6
  call void @llvm.lifetime.start.p0(i64 4, ptr %12) #6
  call void @llvm.lifetime.start.p0(i64 8, ptr %13) #6
  store ptr null, ptr %13, align 8
  %15 = load i32, ptr %10, align 4
  store i32 %15, ptr %12, align 4
  %16 = load i32, ptr %9, align 4
  %17 = icmp ult i32 %16, 1
  br i1 %17, label %18, label %25

18:                                               ; preds = %5
  %19 = load ptr, ptr %8, align 8
  %20 = load ptr, ptr %7, align 8
  %21 = load ptr, ptr %6, align 8
  %22 = load i32, ptr %10, align 4
  %23 = load i32, ptr %9, align 4
  %24 = call ptr @proto_tree_add_expert(ptr noundef %19, ptr noundef %20, ptr noundef @ei_ansi_801_short_data, ptr noundef %21, i32 noundef %22, i32 noundef %23)
  store i32 1, ptr %14, align 4
  br label %86

25:                                               ; preds = %5
  %26 = load ptr, ptr %6, align 8
  %27 = load i32, ptr %10, align 4
  %28 = call zeroext i8 @tvb_get_uint8(ptr noundef %26, i32 noundef %27)
  store i8 %28, ptr %11, align 1
  %29 = load i8, ptr %11, align 1
  %30 = zext i8 %29 to i32
  %31 = and i32 %30, 240
  %32 = ashr i32 %31, 4
  %33 = call ptr @val_to_str_const(i32 noundef %32, ptr noundef @for_req_type_strings, ptr noundef @.str.74)
  store ptr %33, ptr %13, align 8
  %34 = load ptr, ptr %8, align 8
  %35 = load i32, ptr @hf_ansi_801_reject_request_type, align 4
  %36 = load ptr, ptr %6, align 8
  %37 = load i32, ptr %10, align 4
  %38 = load i8, ptr %11, align 1
  %39 = zext i8 %38 to i32
  %40 = load i8, ptr %11, align 1
  %41 = zext i8 %40 to i32
  %42 = and i32 %41, 240
  %43 = ashr i32 %42, 4
  %44 = load ptr, ptr %13, align 8
  %45 = call ptr (ptr, i32, ptr, i32, i32, i32, ptr, ...) @proto_tree_add_uint_format_value(ptr noundef %34, i32 noundef %35, ptr noundef %36, i32 noundef %37, i32 noundef 1, i32 noundef %39, ptr noundef @.str.258, i32 noundef %43, ptr noundef %44)
  %46 = load i8, ptr %11, align 1
  %47 = zext i8 %46 to i32
  %48 = and i32 %47, 14
  %49 = ashr i32 %48, 1
  switch i32 %49, label %52 [
    i32 0, label %50
    i32 1, label %51
  ]

50:                                               ; preds = %25
  store ptr @.str.302, ptr %13, align 8
  br label %53

51:                                               ; preds = %25
  store ptr @.str.303, ptr %13, align 8
  br label %53

52:                                               ; preds = %25
  store ptr @.str.74, ptr %13, align 8
  br label %53

53:                                               ; preds = %52, %51, %50
  %54 = load ptr, ptr %8, align 8
  %55 = load i32, ptr @hf_ansi_801_reject_reason, align 4
  %56 = load ptr, ptr %6, align 8
  %57 = load i32, ptr %10, align 4
  %58 = load i8, ptr %11, align 1
  %59 = zext i8 %58 to i32
  %60 = load ptr, ptr %13, align 8
  %61 = call ptr (ptr, i32, ptr, i32, i32, i32, ptr, ...) @proto_tree_add_uint_format_value(ptr noundef %54, i32 noundef %55, ptr noundef %56, i32 noundef %57, i32 noundef 1, i32 noundef %59, ptr noundef @.str.275, ptr noundef %60)
  %62 = load ptr, ptr %8, align 8
  %63 = load i32, ptr @hf_ansi_801_reserved8_01, align 4
  %64 = load ptr, ptr %6, align 8
  %65 = load i32, ptr %10, align 4
  %66 = call ptr @proto_tree_add_item(ptr noundef %62, i32 noundef %63, ptr noundef %64, i32 noundef %65, i32 noundef 1, i32 noundef 0)
  %67 = load i32, ptr %10, align 4
  %68 = add i32 %67, 1
  store i32 %68, ptr %10, align 4
  %69 = load i32, ptr %9, align 4
  %70 = load i32, ptr %10, align 4
  %71 = load i32, ptr %12, align 4
  %72 = sub i32 %70, %71
  %73 = icmp ugt i32 %69, %72
  br i1 %73, label %74, label %85

74:                                               ; preds = %53
  %75 = load ptr, ptr %8, align 8
  %76 = load ptr, ptr %7, align 8
  %77 = load ptr, ptr %6, align 8
  %78 = load i32, ptr %10, align 4
  %79 = load i32, ptr %9, align 4
  %80 = load i32, ptr %10, align 4
  %81 = load i32, ptr %12, align 4
  %82 = sub i32 %80, %81
  %83 = sub i32 %79, %82
  %84 = call ptr @proto_tree_add_expert(ptr noundef %75, ptr noundef %76, ptr noundef @ei_ansi_801_extraneous_data, ptr noundef %77, i32 noundef %78, i32 noundef %83)
  br label %85

85:                                               ; preds = %74, %53
  store i32 0, ptr %14, align 4
  br label %86

86:                                               ; preds = %85, %18
  call void @llvm.lifetime.end.p0(i64 8, ptr %13) #6
  call void @llvm.lifetime.end.p0(i64 4, ptr %12) #6
  call void @llvm.lifetime.end.p0(i64 1, ptr %11) #6
  %87 = load i32, ptr %14, align 4
  switch i32 %87, label %89 [
    i32 0, label %88
    i32 1, label %88
  ]

88:                                               ; preds = %86, %86
  ret void

89:                                               ; preds = %86
  unreachable
}